; Function Attrs: mustprogress nofree norecurse nosync nounwind willreturn memory(none) uwtable
define dso_local { i64, i64 } @i128_shl(i64 %0, i64 %1, i64 %2, i64 %3) local_unnamed_addr #1 {
  %.not = icmp eq i64 %2, 0
  br i1 %.not, label %5, label %i128_shl64.exit

5:                                                ; preds = %4
  %6 = icmp eq i64 %3, 0
  br i1 %6, label %i128_shl64.exit, label %7

7:                                                ; preds = %5
  %8 = icmp ugt i64 %3, 127
  br i1 %8, label %i128_shl64.exit, label %9

9:                                                ; preds = %7
  %10 = icmp eq i64 %3, 64
  br i1 %10, label %i128_shl64.exit, label %11

11:                                               ; preds = %9
  %12 = icmp samesign ugt i64 %3, 64
  br i1 %12, label %13, label %16

13:                                               ; preds = %11
  %14 = add nsw i64 %3, -64
  %15 = shl i64 %1, %14
  br label %i128_shl64.exit

16:                                               ; preds = %11
  %17 = shl i64 %0, %3
  %18 = sub nuw nsw i64 64, %3
  %19 = lshr i64 %1, %18
  %20 = or disjoint i64 %19, %17
  %21 = shl i64 %1, %3
  br label %i128_shl64.exit

i128_shl64.exit:                                  ; preds = %16, %13, %9, %7, %5, %4
  %.sroa.03.0 = phi i64 [ 0, %4 ], [ %15, %13 ], [ %20, %16 ], [ %0, %5 ], [ 0, %7 ], [ %1, %9 ]
  %.sroa.3.0 = phi i64 [ 0, %4 ], [ 0, %13 ], [ %21, %16 ], [ %1, %5 ], [ 0, %7 ], [ 0, %9 ]
  %.fca.0.insert = insertvalue { i64, i64 } poison, i64 %.sroa.03.0, 0
  %.fca.1.insert = insertvalue { i64, i64 } %.fca.0.insert, i64 %.sroa.3.0, 1
  ret { i64, i64 } %.fca.1.insert
}